target datalayout = "e-m:e-p270:32:32-p271:32:32-p272:64:64-i64:64-i128:128-f80:128-n8:16:32:64-S128"
target triple = "x86_64-pc-linux-gnu"

%class.Symbol = type { i32, i16, [2 x i8] }

; Function Attrs: mustprogress nounwind uwtable
define hidden void @_ZN6SymbolC2ERKS_(ptr noundef nonnull align 4 dereferenceable(8) %0, ptr noundef nonnull align 4 dereferenceable(8) %1) unnamed_addr #1 align 2 {
  %3 = alloca ptr, align 8
  %4 = alloca ptr, align 8
  store ptr %0, ptr %3, align 8
  store ptr %1, ptr %4, align 8
  %5 = load ptr, ptr %3, align 8
  %6 = load ptr, ptr %4, align 8
  %7 = getelementptr inbounds %class.Symbol, ptr %6, i32 0, i32 0
  %8 = load volatile i32, ptr %7, align 4
  %9 = getelementptr inbounds %class.Symbol, ptr %5, i32 0, i32 0
  store volatile i32 %8, ptr %9, align 4
  %10 = load ptr, ptr %4, align 8
  %11 = getelementptr inbounds %class.Symbol, ptr %10, i32 0, i32 1
  %12 = load i16, ptr %11, align 4
  %13 = getelementptr inbounds %class.Symbol, ptr %5, i32 0, i32 1
  store i16 %12, ptr %13, align 4
  %14 = getelementptr inbounds %class.Symbol, ptr %5, i32 0, i32 2
  %15 = getelementptr inbounds [2 x i8], ptr %14, i64 0, i64 0
  %16 = load ptr, ptr %4, align 8
  %17 = getelementptr inbounds %class.Symbol, ptr %16, i32 0, i32 2
  %18 = getelementptr inbounds [2 x i8], ptr %17, i64 0, i64 0
  %19 = getelementptr inbounds %class.Symbol, ptr %5, i32 0, i32 1
  %20 = load i16, ptr %19, align 4
  %21 = zext i16 %20 to i64
  call void @llvm.memcpy.p0.p0.i64(ptr align 2 %15, ptr align 2 %18, i64 %21, i1 false)
  ret void
}