; Function Attrs: mustprogress nofree norecurse nounwind memory(argmem: readwrite, inaccessiblemem: readwrite) uwtable
define hidden void @_ZN6SymbolC2ERKS_(ptr noundef nonnull align 4 dereferenceable(8) %0, ptr noundef nonnull align 4 dereferenceable(8) %1) unnamed_addr #4 align 2 {
  %3 = load volatile i32, ptr %1, align 4
  store volatile i32 %3, ptr %0, align 4
  %4 = getelementptr inbounds i8, ptr %1, i64 4
  %5 = load i16, ptr %4, align 4
  %6 = getelementptr inbounds i8, ptr %0, i64 4
  store i16 %5, ptr %6, align 4
  %7 = getelementptr inbounds i8, ptr %0, i64 6
  %8 = getelementptr inbounds i8, ptr %1, i64 6
  %9 = zext i16 %5 to i64
  tail call void @llvm.memcpy.p0.p0.i64(ptr nonnull align 2 %7, ptr nonnull align 2 %8, i64 %9, i1 false)
  ret void
}